.text

// ── isa_native::GSDrawScanline (length=14, correct) ─────
.globl __ZN10isa_native14GSDrawScanlineC1Ev
.globl __ZN10isa_native14GSDrawScanlineD1Ev
.globl __ZN10isa_native14GSDrawScanline9BeginDrawERKNS_16GSRasterizerDataER19GSScanlineLocalData
.globl __ZN10isa_native14GSDrawScanline9SetupDrawERNS_16GSRasterizerDataE
.globl __ZN10isa_native14GSDrawScanline8DrawRectERK10GSVector4iRK10GSVertexSWR19GSScanlineLocalData
.globl __ZN10isa_native14GSDrawScanline10PrintStatsEv
.globl __ZN10isa_native14GSDrawScanline14ResetCodeCacheEv

__ZN10isa_native14GSDrawScanlineC1Ev:
__ZN10isa_native14GSDrawScanlineD1Ev:
__ZN10isa_native14GSDrawScanline9BeginDrawERKNS_16GSRasterizerDataER19GSScanlineLocalData:
__ZN10isa_native14GSDrawScanline9SetupDrawERNS_16GSRasterizerDataE:
__ZN10isa_native14GSDrawScanline8DrawRectERK10GSVector4iRK10GSVertexSWR19GSScanlineLocalData:
__ZN10isa_native14GSDrawScanline10PrintStatsEv:
__ZN10isa_native14GSDrawScanline14ResetCodeCacheEv:
    ret

// ── GameDatabaseSchema::GameEntry (length=18, correct) ──
.globl __ZNK18GameDatabaseSchema9GameEntry14applyGameFixesER11Pcsx2Configb
__ZNK18GameDatabaseSchema9GameEntry14applyGameFixesER11Pcsx2Configb:
    ret

// ── Log:: symbols (exact from nm output) ────────────────
.globl __ZN3Log11GetMaxLevelEv
.globl __ZN3Log12WriteFmtArgsE8LOGLEVEL13ConsoleColorsN3fmt3v1217basic_string_viewIcEENS3_17basic_format_argsINS3_7contextEEE
.globl __ZN3Log18SetFileOutputLevelE8LOGLEVELNSt3__112basic_stringIcNS1_11char_traitsIcEENS1_9allocatorIcEEEE
.globl __ZN3Log19IsFileOutputEnabledEv
.globl __ZN3Log20SetTimestampsEnabledEb
.globl __ZN3Log21SetConsoleOutputLevelE8LOGLEVEL
.globl __ZN3Log22IsConsoleOutputEnabledEv
.globl __ZN3Log5WriteE8LOGLEVEL13ConsoleColorsNSt3__117basic_string_viewIcNS2_11char_traitsIcEEEE
.globl __ZN3Log6WritevE8LOGLEVEL13ConsoleColorsPKcPc

__ZN3Log11GetMaxLevelEv:
__ZN3Log12WriteFmtArgsE8LOGLEVEL13ConsoleColorsN3fmt3v1217basic_string_viewIcEENS3_17basic_format_argsINS3_7contextEEE:
__ZN3Log18SetFileOutputLevelE8LOGLEVELNSt3__112basic_stringIcNS1_11char_traitsIcEENS1_9allocatorIcEEEE:
__ZN3Log19IsFileOutputEnabledEv:
__ZN3Log20SetTimestampsEnabledEb:
__ZN3Log21SetConsoleOutputLevelE8LOGLEVEL:
__ZN3Log22IsConsoleOutputEnabledEv:
__ZN3Log5WriteE8LOGLEVEL13ConsoleColorsNSt3__117basic_string_viewIcNS2_11char_traitsIcEEEE:
__ZN3Log6WritevE8LOGLEVEL13ConsoleColorsPKcPc:
    ret
